(lp0
(itimeseq
ChapterData
p1
(dp2
S'active'
p3
I01
sS'lines'
p4
(lp5
(ifpgaseq
SeqLine
p6
(dp7
S'delay'
p8
F2000.0
sS'bitarray'
p9
(dp10
I0
I-1
sI1
I1
sI2
I1
sI3
I-1
sI4
I0
sI5
I0
sI6
I0
sI7
I0
sI8
I0
sI9
I0
sI10
I0
sI11
I0
sI12
I0
sI13
I0
sI14
I0
sI15
I0
sI16
I0
sI17
I0
sI18
I0
sI19
I0
sI20
I0
sI21
I0
sI22
I0
sI23
I0
sI24
I0
sI25
I0
sI26
I0
sI27
I0
sI28
I0
sI29
I0
sI30
I0
sI31
I0
sI32
I0
sI33
I0
sI34
I0
sI35
I0
sI36
I0
sI37
I0
sI38
I0
sI39
I0
ssS'scanned'
p11
I00
sba(ifpgaseq
SeqLine
p12
(dp13
g8
F0.10000000000000001
sg9
(dp14
I0
I1
sI1
I0
sI2
I0
sI3
I1
sI4
I0
sI5
I0
sI6
I0
sI7
I0
sI8
I0
sI9
I0
sI10
I0
sI11
I0
sI12
I0
sI13
I0
sI14
I0
sI15
I0
sI16
I0
sI17
I0
sI18
I0
sI19
I0
sI20
I0
sI21
I0
sI22
I0
sI23
I0
sI24
I0
sI25
I0
sI26
I0
sI27
I0
sI28
I0
sI29
I0
sI30
I0
sI31
I0
sI32
I0
sI33
I0
sI34
I0
sI35
I0
sI36
I0
sI37
I0
sI38
I0
sI39
I0
ssg11
I00
sbasS'name'
p15
csip
_unpickle_type
p16
(S'PyQt4.QtCore'
p17
S'QString'
p18
(VDoppler cooling
p19
tp20
tp21
Rp22
sS'nrow'
p23
I2
sba(itimeseq
ChapterData
p24
(dp25
g3
I01
sg4
(lp26
(ifpgaseq
SeqLine
p27
(dp28
g8
F50.0
sg9
(dp29
I0
I0
sI1
I-1
sI2
I-1
sI3
I0
sI4
I0
sI5
I0
sI6
I0
sI7
I0
sI8
I0
sI9
I0
sI10
I0
sI11
I0
sI12
I0
sI13
I0
sI14
I0
sI15
I0
sI16
I0
sI17
I0
sI18
I0
sI19
I0
sI20
I0
sI21
I0
sI22
I0
sI23
I0
sI24
I0
sI25
I0
sI26
I0
sI27
I0
sI28
I0
sI29
I0
sI30
I0
sI31
I0
sI32
I0
sI33
I0
sI34
I0
sI35
I0
sI36
I0
sI37
I0
sI38
I0
sI39
I0
ssg11
I00
sba(ifpgaseq
SeqLine
p30
(dp31
g8
F0.10000000000000001
sg9
(dp32
I0
I0
sI1
I1
sI2
I1
sI3
I0
sI4
I0
sI5
I0
sI6
I0
sI7
I0
sI8
I0
sI9
I0
sI10
I0
sI11
I0
sI12
I0
sI13
I0
sI14
I0
sI15
I0
sI16
I0
sI17
I0
sI18
I0
sI19
I0
sI20
I0
sI21
I0
sI22
I0
sI23
I0
sI24
I0
sI25
I0
sI26
I0
sI27
I0
sI28
I0
sI29
I0
sI30
I0
sI31
I0
sI32
I0
sI33
I0
sI34
I0
sI35
I0
sI36
I0
sI37
I0
sI38
I0
sI39
I0
ssg11
I00
sbasg15
g16
(g17
S'QString'
p33
(VOptical pumping
p34
tp35
tp36
Rp37
sg23
I2
sba(itimeseq
ChapterData
p38
(dp39
g3
I01
sg4
(lp40
(ifpgaseq
SeqLine
p41
(dp42
g8
F1000.0
sg9
(dp43
I0
I0
sI1
I-1
sI2
I0
sI3
I0
sI4
I0
sI5
I0
sI6
I0
sI7
I0
sI8
I0
sI9
I0
sI10
I0
sI11
I0
sI12
I0
sI13
I0
sI14
I0
sI15
I0
sI16
I0
sI17
I0
sI18
I0
sI19
I0
sI20
I0
sI21
I0
sI22
I0
sI23
I0
sI24
I0
sI25
I0
sI26
I0
sI27
I0
sI28
I0
sI29
I0
sI30
I0
sI31
I0
sI32
I1
sI33
I1
sI34
I1
sI35
I1
sI36
I1
sI37
I1
sI38
I1
sI39
I1
ssg11
I00
sba(ifpgaseq
SeqLine
p44
(dp45
g8
F0.10000000000000001
sg9
(dp46
I0
I0
sI1
I1
sI2
I0
sI3
I0
sI4
I0
sI5
I0
sI6
I0
sI7
I0
sI8
I0
sI9
I0
sI10
I0
sI11
I0
sI12
I0
sI13
I0
sI14
I0
sI15
I0
sI16
I0
sI17
I0
sI18
I0
sI19
I0
sI20
I0
sI21
I0
sI22
I0
sI23
I0
sI24
I0
sI25
I0
sI26
I0
sI27
I0
sI28
I0
sI29
I0
sI30
I0
sI31
I0
sI32
I-1
sI33
I-1
sI34
I-1
sI35
I-1
sI36
I-1
sI37
I-1
sI38
I-1
sI39
I-1
ssg11
I00
sbasg15
g16
(g17
S'QString'
p47
(VState detection
p48
tp49
tp50
Rp51
sg23
I2
sba.